target datalayout = "e-m:e-p270:32:32-p271:32:32-p272:64:64-i64:64-i128:128-f80:128-n8:16:32:64-S128"
target triple = "x86_64-pc-linux-gnu"

%"class.icu_77::MaybeStackArray" = type <{ ptr, i32, i8, [40 x i8], [3 x i8] }>
%"struct.icu_77::number::impl::MicroProps" = type <{ %"class.icu_77::number::impl::MicroPropsGenerator", %"struct.icu_77::number::impl::SimpleMicroProps", %"class.icu_77::number::impl::RoundingImpl", %"class.icu_77::number::impl::Padder", %"class.icu_77::number::IntegerWidth", i32, [9 x i8], [3 x i8], ptr, ptr, ptr, ptr, %struct.anon.5, %"class.icu_77::MeasureUnit", %"class.icu_77::number::impl::IntMeasures", i32, i32, i8, [7 x i8] }>
%"class.icu_77::number::impl::MicroPropsGenerator" = type { ptr }
%"struct.icu_77::number::impl::SimpleMicroProps" = type { [4 x i8], %"class.icu_77::number::impl::Grouper", i8, i32, %"class.icu_77::UnicodeString", ptr }
%"class.icu_77::number::impl::Grouper" = type { i16, i16, i16, i32 }
%"class.icu_77::UnicodeString" = type { %"class.icu_77::Replaceable", %"union.icu_77::UnicodeString::StackBufferOrFields" }
%"class.icu_77::Replaceable" = type { %"class.icu_77::UObject" }
%"class.icu_77::UObject" = type { ptr }
%"union.icu_77::UnicodeString::StackBufferOrFields" = type { %struct.anon.1, [32 x i8] }
%struct.anon.1 = type { i16, i32, i32, ptr }
%"class.icu_77::number::impl::RoundingImpl" = type <{ %"class.icu_77::number::Precision", i32, i8, [3 x i8] }>
%"class.icu_77::number::Precision" = type <{ i32, [4 x i8], %"union.icu_77::number::Precision::PrecisionUnion", i32, [4 x i8] }>
%"union.icu_77::number::Precision::PrecisionUnion" = type { %"struct.icu_77::number::Precision::PrecisionUnion::IncrementSettings" }
%"struct.icu_77::number::Precision::PrecisionUnion::IncrementSettings" = type { i64, i16, i16 }
%"class.icu_77::number::impl::Padder" = type { i32, %union.anon }
%union.anon = type { %struct.anon.2 }
%struct.anon.2 = type { i32, i32 }
%"class.icu_77::number::IntegerWidth" = type <{ %union.anon.3, i8, [3 x i8] }>
%union.anon.3 = type { i32, [4 x i8] }
%struct.anon.5 = type { %"class.icu_77::number::impl::ScientificModifier", %"class.icu_77::number::impl::EmptyModifier", %"class.icu_77::number::impl::EmptyModifier", %"class.icu_77::number::impl::MultiplierFormatHandler", %"class.icu_77::number::impl::SimpleModifier" }
%"class.icu_77::number::impl::ScientificModifier" = type { %"class.icu_77::number::impl::Modifier", i32, ptr }
%"class.icu_77::number::impl::Modifier" = type { ptr }
%"class.icu_77::number::impl::EmptyModifier" = type <{ %"class.icu_77::number::impl::Modifier", i8, [7 x i8] }>
%"class.icu_77::number::impl::MultiplierFormatHandler" = type { %"class.icu_77::number::impl::MicroPropsGenerator", %"class.icu_77::number::Scale", ptr }
%"class.icu_77::number::Scale" = type <{ i32, [4 x i8], ptr, i32, [4 x i8] }>
%"class.icu_77::number::impl::SimpleModifier" = type { %"class.icu_77::number::impl::Modifier", %"class.icu_77::UnicodeString", %"struct.icu_77::FormattedStringBuilder::Field", i8, i32, i32, i32, %"struct.icu_77::number::impl::Modifier::Parameters" }
%"struct.icu_77::FormattedStringBuilder::Field" = type { i8 }
%"struct.icu_77::number::impl::Modifier::Parameters" = type { ptr, i32, i32 }
%"class.icu_77::MeasureUnit" = type <{ %"class.icu_77::UObject", ptr, i16, i8, [5 x i8] }>
%"class.icu_77::number::impl::IntMeasures" = type <{ %"class.icu_77::MaybeStackArray.6", i32, [4 x i8] }>
%"class.icu_77::MaybeStackArray.6" = type { ptr, i32, i8, [2 x i64] }
%"class.icu_77::MemoryPool" = type { i32, %"class.icu_77::MaybeStackArray.0" }
%"class.icu_77::MaybeStackArray.0" = type { ptr, i32, i8, [8 x ptr] }
%"class.icu_77::number::impl::UsagePrefsHandler" = type { %"class.icu_77::number::impl::MicroPropsGenerator", %"class.icu_77::units::UnitsRouter", ptr }
%"class.icu_77::units::UnitsRouter" = type { %"class.icu_77::MaybeStackVector.11", %"class.icu_77::MaybeStackVector.14" }
%"class.icu_77::MaybeStackVector.11" = type { %"class.icu_77::MemoryPool.12" }
%"class.icu_77::MemoryPool.12" = type { i32, %"class.icu_77::MaybeStackArray.13" }
%"class.icu_77::MaybeStackArray.13" = type { ptr, i32, i8, [8 x ptr] }
%"class.icu_77::MaybeStackVector.14" = type { %"class.icu_77::MemoryPool.15" }
%"class.icu_77::MemoryPool.15" = type { i32, %"class.icu_77::MaybeStackArray.16" }
%"class.icu_77::MaybeStackArray.16" = type { ptr, i32, i8, [8 x ptr] }
%"struct.icu_77::units::RouteResult" = type { [8 x i8], %"class.icu_77::MaybeStackVector", %"class.icu_77::MeasureUnitImpl" }
%"class.icu_77::MaybeStackVector" = type { %"class.icu_77::MemoryPool" }
%"class.icu_77::MeasureUnitImpl" = type { i32, %"class.icu_77::MaybeStackVector.17", %"class.icu_77::CharString", i64 }
%"class.icu_77::MaybeStackVector.17" = type { %"class.icu_77::MemoryPool.18" }
%"class.icu_77::MemoryPool.18" = type { i32, %"class.icu_77::MaybeStackArray.19" }
%"class.icu_77::MaybeStackArray.19" = type { ptr, i32, i8, [8 x ptr] }
%"class.icu_77::CharString" = type { %"class.icu_77::MaybeStackArray", i32, [4 x i8] }

; Function Attrs: inlinehint mustprogress nounwind uwtable
define internal noundef signext i8 @_ZL9U_FAILURE10UErrorCode(i32 noundef %0) #2 {
  %2 = alloca i32, align 4
  store i32 %0, ptr %2, align 4, !tbaa !15
  %3 = load i32, ptr %2, align 4, !tbaa !15
  %4 = icmp sgt i32 %3, 0
  %5 = zext i1 %4 to i8
  ret i8 %5
}

; Function Attrs: mustprogress uwtable
define void @_ZNK6icu_776number4impl17UsagePrefsHandler15processQuantityERNS1_15DecimalQuantityERNS1_10MicroPropsER10UErrorCode(ptr noundef nonnull align 8 dereferenceable(192) %0, ptr noundef nonnull align 8 dereferenceable(66) %1, ptr noundef nonnull align 8 dereferenceable(489) %2, ptr noundef nonnull align 4 dereferenceable(4) %3) unnamed_addr #1 align 2 personality ptr @__gxx_personality_v0 {
  %5 = alloca ptr, align 8
  %6 = alloca ptr, align 8
  %7 = alloca ptr, align 8
  %8 = alloca ptr, align 8
  %9 = alloca %"struct.icu_77::units::RouteResult", align 8
  %10 = alloca ptr, align 8
  %11 = alloca i32, align 4
  %12 = alloca i32, align 4
  %13 = alloca ptr, align 8
  %14 = alloca %"class.icu_77::MeasureUnit", align 8
  %15 = alloca %"class.icu_77::MeasureUnitImpl", align 8
  store ptr %0, ptr %5, align 8, !tbaa !101
  store ptr %1, ptr %6, align 8, !tbaa !38
  store ptr %2, ptr %7, align 8, !tbaa !40
  store ptr %3, ptr %8, align 8, !tbaa !22
  %16 = load ptr, ptr %5, align 8
  %17 = getelementptr inbounds nuw %"class.icu_77::number::impl::UsagePrefsHandler", ptr %16, i32 0, i32 2
  %18 = load ptr, ptr %17, align 8, !tbaa !110
  %19 = load ptr, ptr %6, align 8, !tbaa !38
  %20 = load ptr, ptr %7, align 8, !tbaa !40
  %21 = load ptr, ptr %8, align 8, !tbaa !22
  %22 = load ptr, ptr %18, align 8, !tbaa !108
  %23 = getelementptr inbounds ptr, ptr %22, i64 2
  %24 = load ptr, ptr %23, align 8
  call void %24(ptr noundef nonnull align 8 dereferenceable(8) %18, ptr noundef nonnull align 8 dereferenceable(66) %19, ptr noundef nonnull align 8 dereferenceable(489) %20, ptr noundef nonnull align 4 dereferenceable(4) %21)
  %25 = load ptr, ptr %8, align 8, !tbaa !22
  %26 = load i32, ptr %25, align 4, !tbaa !15
  %27 = call noundef signext i8 @_ZL9U_FAILURE10UErrorCode(i32 noundef %26)
  %28 = icmp ne i8 %27, 0
  br i1 %28, label %29, label %30

29:                                               ; preds = %4
  br label %87

30:                                               ; preds = %4
  %31 = load ptr, ptr %6, align 8, !tbaa !38
  call void @_ZN6icu_776number4impl15DecimalQuantity15roundToInfinityEv(ptr noundef nonnull align 8 dereferenceable(66) %31)
  call void @llvm.lifetime.start.p0(i64 264, ptr %9) #12
  %32 = getelementptr inbounds nuw %"class.icu_77::number::impl::UsagePrefsHandler", ptr %16, i32 0, i32 1
  %33 = load ptr, ptr %6, align 8, !tbaa !38
  %34 = call noundef double @_ZNK6icu_776number4impl15DecimalQuantity8toDoubleEv(ptr noundef nonnull align 8 dereferenceable(66) %33)
  %35 = load ptr, ptr %7, align 8, !tbaa !40
  %36 = getelementptr inbounds nuw %"struct.icu_77::number::impl::MicroProps", ptr %35, i32 0, i32 2
  %37 = load ptr, ptr %8, align 8, !tbaa !22
  call void @_ZNK6icu_775units11UnitsRouter5routeEdPNS_6number4impl12RoundingImplER10UErrorCode(ptr dead_on_unwind writable sret(%"struct.icu_77::units::RouteResult") align 8 %9, ptr noundef nonnull align 8 dereferenceable(176) %32, double noundef %34, ptr noundef %36, ptr noundef nonnull align 4 dereferenceable(4) %37)
  %38 = load ptr, ptr %8, align 8, !tbaa !22
  %39 = load i32, ptr %38, align 4, !tbaa !15
  %40 = invoke noundef signext i8 @_ZL9U_FAILURE10UErrorCode(i32 noundef %39)
          to label %41 unwind label %44

41:                                               ; preds = %30
  %42 = icmp ne i8 %40, 0
  br i1 %42, label %43, label %48

43:                                               ; preds = %41
  store i32 1, ptr %12, align 4
  br label %85

44:                                               ; preds = %30
  %45 = landingpad { ptr, i32 }
          cleanup
  %46 = extractvalue { ptr, i32 } %45, 0
  store ptr %46, ptr %10, align 8
  %47 = extractvalue { ptr, i32 } %45, 1
  store i32 %47, ptr %11, align 4
  br label %89

48:                                               ; preds = %41
  call void @llvm.lifetime.start.p0(i64 8, ptr %13) #12
  %49 = getelementptr inbounds nuw %"struct.icu_77::units::RouteResult", ptr %9, i32 0, i32 1
  store ptr %49, ptr %13, align 8, !tbaa !36
  call void @llvm.lifetime.start.p0(i64 24, ptr %14) #12
  call void @llvm.lifetime.start.p0(i64 168, ptr %15) #12
  %50 = getelementptr inbounds nuw %"struct.icu_77::units::RouteResult", ptr %9, i32 0, i32 2
  %51 = load ptr, ptr %8, align 8, !tbaa !22
  invoke void @_ZNK6icu_7715MeasureUnitImpl4copyER10UErrorCode(ptr dead_on_unwind writable sret(%"class.icu_77::MeasureUnitImpl") align 8 %15, ptr noundef nonnull align 8 dereferenceable(168) %50, ptr noundef nonnull align 4 dereferenceable(4) %51)
          to label %52 unwind label %64

52:                                               ; preds = %48
  %53 = load ptr, ptr %8, align 8, !tbaa !22
  invoke void @_ZNO6icu_7715MeasureUnitImpl5buildER10UErrorCode(ptr dead_on_unwind writable sret(%"class.icu_77::MeasureUnit") align 8 %14, ptr noundef nonnull align 8 dereferenceable(168) %15, ptr noundef nonnull align 4 dereferenceable(4) %53)
          to label %54 unwind label %68

54:                                               ; preds = %52
  %55 = load ptr, ptr %7, align 8, !tbaa !40
  %56 = getelementptr inbounds nuw %"struct.icu_77::number::impl::MicroProps", ptr %55, i32 0, i32 13
  %57 = call noundef nonnull align 8 dereferenceable(19) ptr @_ZN6icu_7711MeasureUnitaSEOS0_(ptr noundef nonnull align 8 dereferenceable(19) %56, ptr noundef nonnull align 8 dereferenceable(19) %14) #12
  call void @_ZN6icu_7711MeasureUnitD1Ev(ptr noundef nonnull align 8 dereferenceable(19) %14) #12
  call void @_ZN6icu_7715MeasureUnitImplD2Ev(ptr noundef nonnull align 8 dereferenceable(168) %15) #12
  call void @llvm.lifetime.end.p0(i64 168, ptr %15) #12
  call void @llvm.lifetime.end.p0(i64 24, ptr %14) #12
  %58 = load ptr, ptr %8, align 8, !tbaa !22
  %59 = load i32, ptr %58, align 4, !tbaa !15
  %60 = invoke noundef signext i8 @_ZL9U_FAILURE10UErrorCode(i32 noundef %59)
          to label %61 unwind label %73

61:                                               ; preds = %54
  %62 = icmp ne i8 %60, 0
  br i1 %62, label %63, label %77

63:                                               ; preds = %61
  store i32 1, ptr %12, align 4
  br label %84

64:                                               ; preds = %48
  %65 = landingpad { ptr, i32 }
          cleanup
  %66 = extractvalue { ptr, i32 } %65, 0
  store ptr %66, ptr %10, align 8
  %67 = extractvalue { ptr, i32 } %65, 1
  store i32 %67, ptr %11, align 4
  br label %72

68:                                               ; preds = %52
  %69 = landingpad { ptr, i32 }
          cleanup
  %70 = extractvalue { ptr, i32 } %69, 0
  store ptr %70, ptr %10, align 8
  %71 = extractvalue { ptr, i32 } %69, 1
  store i32 %71, ptr %11, align 4
  call void @_ZN6icu_7715MeasureUnitImplD2Ev(ptr noundef nonnull align 8 dereferenceable(168) %15) #12
  br label %72

72:                                               ; preds = %68, %64
  call void @llvm.lifetime.end.p0(i64 168, ptr %15) #12
  call void @llvm.lifetime.end.p0(i64 24, ptr %14) #12
  br label %88

73:                                               ; preds = %77, %54
  %74 = landingpad { ptr, i32 }
          cleanup
  %75 = extractvalue { ptr, i32 } %74, 0
  store ptr %75, ptr %10, align 8
  %76 = extractvalue { ptr, i32 } %74, 1
  store i32 %76, ptr %11, align 4
  br label %88

77:                                               ; preds = %61
  %78 = load ptr, ptr %13, align 8, !tbaa !36
  %79 = load ptr, ptr %6, align 8, !tbaa !38
  %80 = load ptr, ptr %7, align 8, !tbaa !40
  %81 = load ptr, ptr %8, align 8, !tbaa !22
  %82 = load i32, ptr %81, align 4, !tbaa !15
  invoke void @_Z24mixedMeasuresToMicros_77RKN6icu_7716MaybeStackVectorINS_7MeasureELi8EEEPNS_6number4impl15DecimalQuantityEPNS6_10MicroPropsE10UErrorCode(ptr noundef nonnull align 8 dereferenceable(88) %78, ptr noundef %79, ptr noundef %80, i32 noundef %82)
          to label %83 unwind label %73

83:                                               ; preds = %77
  store i32 0, ptr %12, align 4
  br label %84

84:                                               ; preds = %83, %63
  call void @llvm.lifetime.end.p0(i64 8, ptr %13) #12
  br label %85

85:                                               ; preds = %84, %43
  call void @_ZN6icu_775units11RouteResultD2Ev(ptr noundef nonnull align 8 dereferenceable(264) %9) #12
  call void @llvm.lifetime.end.p0(i64 264, ptr %9) #12
  %86 = load i32, ptr %12, align 4
  switch i32 %86, label %95 [
    i32 0, label %87
    i32 1, label %87
  ]

87:                                               ; preds = %29, %85, %85
  ret void

88:                                               ; preds = %73, %72
  call void @llvm.lifetime.end.p0(i64 8, ptr %13) #12
  br label %89

89:                                               ; preds = %88, %44
  call void @_ZN6icu_775units11RouteResultD2Ev(ptr noundef nonnull align 8 dereferenceable(264) %9) #12
  call void @llvm.lifetime.end.p0(i64 264, ptr %9) #12
  br label %90

90:                                               ; preds = %89
  %91 = load ptr, ptr %10, align 8
  %92 = load i32, ptr %11, align 4
  %93 = insertvalue { ptr, i32 } poison, ptr %91, 0
  %94 = insertvalue { ptr, i32 } %93, i32 %92, 1
  resume { ptr, i32 } %94

95:                                               ; preds = %85
  unreachable
}