; Function Attrs: mustprogress uwtable
define void @_ZNK6icu_776number4impl17UsagePrefsHandler15processQuantityERNS1_15DecimalQuantityERNS1_10MicroPropsER10UErrorCode(ptr noundef nonnull align 8 dereferenceable(192) %0, ptr noundef nonnull align 8 dereferenceable(66) %1, ptr noundef nonnull align 8 dereferenceable(489) %2, ptr noundef nonnull align 4 dereferenceable(4) %3) unnamed_addr #1 align 2 personality ptr @__gxx_personality_v0 {
  %5 = alloca %"struct.icu_77::units::RouteResult", align 8
  %6 = alloca %"class.icu_77::MeasureUnit", align 8
  %7 = alloca %"class.icu_77::MeasureUnitImpl", align 8
  %8 = getelementptr inbounds nuw i8, ptr %0, i64 184
  %9 = load ptr, ptr %8, align 8, !tbaa !80
  %10 = load ptr, ptr %9, align 8, !tbaa !78
  %11 = getelementptr inbounds nuw i8, ptr %10, i64 16
  %12 = load ptr, ptr %11, align 8
  tail call void %12(ptr noundef nonnull align 8 dereferenceable(8) %9, ptr noundef nonnull align 8 dereferenceable(66) %1, ptr noundef nonnull align 8 dereferenceable(489) %2, ptr noundef nonnull align 4 dereferenceable(4) %3)
  %13 = load i32, ptr %3, align 4, !tbaa !13
  %14 = icmp slt i32 %13, 1
  br i1 %14, label %15, label %63

15:                                               ; preds = %4
  tail call void @_ZN6icu_776number4impl15DecimalQuantity15roundToInfinityEv(ptr noundef nonnull align 8 dereferenceable(66) %1)
  call void @llvm.lifetime.start.p0(i64 264, ptr nonnull %5) #15
  %16 = getelementptr inbounds nuw i8, ptr %0, i64 8
  %17 = tail call noundef double @_ZNK6icu_776number4impl15DecimalQuantity8toDoubleEv(ptr noundef nonnull align 8 dereferenceable(66) %1)
  %18 = getelementptr inbounds nuw i8, ptr %2, i64 104
  call void @_ZNK6icu_775units11UnitsRouter5routeEdPNS_6number4impl12RoundingImplER10UErrorCode(ptr dead_on_unwind nonnull writable sret(%"struct.icu_77::units::RouteResult") align 8 %5, ptr noundef nonnull align 8 dereferenceable(176) %16, double noundef %17, ptr noundef nonnull %18, ptr noundef nonnull align 4 dereferenceable(4) %3)
  %19 = load i32, ptr %3, align 4, !tbaa !13
  %20 = icmp slt i32 %19, 1
  br i1 %20, label %21, label %62

21:                                               ; preds = %15
  %22 = getelementptr inbounds nuw i8, ptr %5, i64 8
  call void @llvm.lifetime.start.p0(i64 24, ptr nonnull %6) #15
  call void @llvm.lifetime.start.p0(i64 168, ptr nonnull %7) #15
  %23 = getelementptr inbounds nuw i8, ptr %5, i64 96
  invoke void @_ZNK6icu_7715MeasureUnitImpl4copyER10UErrorCode(ptr dead_on_unwind nonnull writable sret(%"class.icu_77::MeasureUnitImpl") align 8 %7, ptr noundef nonnull align 8 dereferenceable(168) %23, ptr noundef nonnull align 4 dereferenceable(4) %3)
          to label %24 unwind label %54

24:                                               ; preds = %21
  invoke void @_ZNO6icu_7715MeasureUnitImpl5buildER10UErrorCode(ptr dead_on_unwind nonnull writable sret(%"class.icu_77::MeasureUnit") align 8 %6, ptr noundef nonnull align 8 dereferenceable(168) %7, ptr noundef nonnull align 4 dereferenceable(4) %3)
          to label %25 unwind label %56

25:                                               ; preds = %24
  %26 = getelementptr inbounds nuw i8, ptr %2, i64 416
  %27 = call noundef nonnull align 8 dereferenceable(19) ptr @_ZN6icu_7711MeasureUnitaSEOS0_(ptr noundef nonnull align 8 dereferenceable(19) %26, ptr noundef nonnull align 8 dereferenceable(19) %6) #15
  call void @_ZN6icu_7711MeasureUnitD1Ev(ptr noundef nonnull align 8 dereferenceable(19) %6) #15
  %28 = getelementptr inbounds nuw i8, ptr %7, i64 96
  call void @_ZN6icu_7715MaybeStackArrayIcLi40EED1Ev(ptr noundef nonnull align 8 dereferenceable(60) %28) #15
  %29 = getelementptr inbounds nuw i8, ptr %7, i64 8
  %30 = load i32, ptr %29, align 8, !tbaa !91
  %31 = icmp sgt i32 %30, 0
  br i1 %31, label %.lr.ph.i.i, label %._crit_edge.i.i

.lr.ph.i.i:                                       ; preds = %25
  %32 = getelementptr inbounds nuw i8, ptr %7, i64 16
  br label %41

._crit_edge.i.i:                                  ; preds = %48, %25
  %33 = getelementptr inbounds nuw i8, ptr %7, i64 28
  %34 = load i8, ptr %33, align 4, !tbaa !95
  %.not.i.i.i.i = icmp eq i8 %34, 0
  br i1 %.not.i.i.i.i, label %_ZN6icu_7715MeasureUnitImplD2Ev.exit, label %35

35:                                               ; preds = %._crit_edge.i.i
  %36 = getelementptr inbounds nuw i8, ptr %7, i64 16
  %37 = load ptr, ptr %36, align 8, !tbaa !96
  invoke void @uprv_free_77(ptr noundef %37)
          to label %_ZN6icu_7715MeasureUnitImplD2Ev.exit unwind label %38

38:                                               ; preds = %35
  %39 = landingpad { ptr, i32 }
          catch ptr null
  %40 = extractvalue { ptr, i32 } %39, 0
  call void @__clang_call_terminate(ptr %40) #17
  unreachable

41:                                               ; preds = %48, %.lr.ph.i.i
  %42 = phi i32 [ %30, %.lr.ph.i.i ], [ %49, %48 ]
  %indvars.iv.i.i = phi i64 [ 0, %.lr.ph.i.i ], [ %indvars.iv.next.i.i, %48 ]
  %43 = load ptr, ptr %32, align 8, !tbaa !96
  %44 = getelementptr inbounds nuw ptr, ptr %43, i64 %indvars.iv.i.i
  %45 = load ptr, ptr %44, align 8, !tbaa !97
  %46 = icmp eq ptr %45, null
  br i1 %46, label %48, label %47

47:                                               ; preds = %41
  call void @_ZN6icu_777UMemorydlEPv(ptr noundef nonnull %45) #15
  %.pre.i.i = load i32, ptr %29, align 8, !tbaa !91
  br label %48

48:                                               ; preds = %47, %41
  %49 = phi i32 [ %42, %41 ], [ %.pre.i.i, %47 ]
  %indvars.iv.next.i.i = add nuw nsw i64 %indvars.iv.i.i, 1
  %50 = sext i32 %49 to i64
  %51 = icmp slt i64 %indvars.iv.next.i.i, %50
  br i1 %51, label %41, label %._crit_edge.i.i, !llvm.loop !99

_ZN6icu_7715MeasureUnitImplD2Ev.exit:             ; preds = %._crit_edge.i.i, %35
  call void @llvm.lifetime.end.p0(i64 168, ptr nonnull %7) #15
  call void @llvm.lifetime.end.p0(i64 24, ptr nonnull %6) #15
  %52 = load i32, ptr %3, align 4, !tbaa !13
  %53 = icmp slt i32 %52, 1
  br i1 %53, label %61, label %62

54:                                               ; preds = %21
  %55 = landingpad { ptr, i32 }
          cleanup
  br label %58

56:                                               ; preds = %24
  %57 = landingpad { ptr, i32 }
          cleanup
  call void @_ZN6icu_7715MeasureUnitImplD2Ev(ptr noundef nonnull align 8 dereferenceable(168) %7) #15
  br label %58

58:                                               ; preds = %56, %54
  %.pn = phi { ptr, i32 } [ %57, %56 ], [ %55, %54 ]
  call void @llvm.lifetime.end.p0(i64 168, ptr nonnull %7) #15
  call void @llvm.lifetime.end.p0(i64 24, ptr nonnull %6) #15
  br label %64

59:                                               ; preds = %61
  %60 = landingpad { ptr, i32 }
          cleanup
  br label %64

61:                                               ; preds = %_ZN6icu_7715MeasureUnitImplD2Ev.exit
  invoke void @_Z24mixedMeasuresToMicros_77RKN6icu_7716MaybeStackVectorINS_7MeasureELi8EEEPNS_6number4impl15DecimalQuantityEPNS6_10MicroPropsE10UErrorCode(ptr noundef nonnull align 8 dereferenceable(88) %22, ptr noundef nonnull %1, ptr noundef nonnull %2, i32 noundef %52)
          to label %62 unwind label %59

62:                                               ; preds = %_ZN6icu_7715MeasureUnitImplD2Ev.exit, %61, %15
  call void @_ZN6icu_775units11RouteResultD2Ev(ptr noundef nonnull align 8 dereferenceable(264) %5) #15
  call void @llvm.lifetime.end.p0(i64 264, ptr nonnull %5) #15
  br label %63

63:                                               ; preds = %4, %62
  ret void

64:                                               ; preds = %59, %58
  %.pn24 = phi { ptr, i32 } [ %60, %59 ], [ %.pn, %58 ]
  call void @_ZN6icu_775units11RouteResultD2Ev(ptr noundef nonnull align 8 dereferenceable(264) %5) #15
  call void @llvm.lifetime.end.p0(i64 264, ptr nonnull %5) #15
  resume { ptr, i32 } %.pn24
}